target datalayout = "e-m:e-p270:32:32-p271:32:32-p272:64:64-i64:64-i128:128-f80:128-n8:16:32:64-S128"
target triple = "x86_64-pc-linux-gnu"

%struct.ASN1_STREAM_ARG_st = type { ptr, ptr, ptr }
%struct.ASN1_ITEM_st = type { i8, i64, ptr, i64, ptr, i64, ptr }
%struct.ASN1_AUX_st = type { ptr, i32, i32, ptr, i32 }
%struct.ndef_aux_st = type { ptr, ptr, ptr, ptr, ptr, ptr }

; Function Attrs: nounwind uwtable
define internal i32 @ndef_suffix(ptr noundef %0, ptr noundef %1, ptr noundef %2, ptr noundef %3) #0 {
  %5 = alloca i32, align 4
  %6 = alloca ptr, align 8
  %7 = alloca ptr, align 8
  %8 = alloca ptr, align 8
  %9 = alloca ptr, align 8
  %10 = alloca ptr, align 8
  %11 = alloca ptr, align 8
  %12 = alloca i32, align 4
  %13 = alloca ptr, align 8
  %14 = alloca %struct.ASN1_STREAM_ARG_st, align 8
  %15 = alloca i32, align 4
  store ptr %0, ptr %6, align 8, !tbaa !6
  store ptr %1, ptr %7, align 8, !tbaa !38
  store ptr %2, ptr %8, align 8, !tbaa !39
  store ptr %3, ptr %9, align 8, !tbaa !41
  call void @llvm.lifetime.start.p0(i64 8, ptr %10) #5
  call void @llvm.lifetime.start.p0(i64 8, ptr %11) #5
  call void @llvm.lifetime.start.p0(i64 4, ptr %12) #5
  call void @llvm.lifetime.start.p0(i64 8, ptr %13) #5
  call void @llvm.lifetime.start.p0(i64 24, ptr %14) #5
  %16 = load ptr, ptr %9, align 8, !tbaa !41
  %17 = icmp ne ptr %16, null
  br i1 %17, label %19, label %18

18:                                               ; preds = %4
  store i32 0, ptr %5, align 4
  store i32 1, ptr %15, align 4
  br label %104

19:                                               ; preds = %4
  %20 = load ptr, ptr %9, align 8, !tbaa !41
  %21 = load ptr, ptr %20, align 8, !tbaa !15
  store ptr %21, ptr %10, align 8, !tbaa !15
  %22 = load ptr, ptr %10, align 8, !tbaa !15
  %23 = getelementptr inbounds nuw %struct.ndef_aux_st, ptr %22, i32 0, i32 1
  %24 = load ptr, ptr %23, align 8, !tbaa !34
  %25 = getelementptr inbounds nuw %struct.ASN1_ITEM_st, ptr %24, i32 0, i32 4
  %26 = load ptr, ptr %25, align 8, !tbaa !17
  store ptr %26, ptr %13, align 8, !tbaa !22
  %27 = load ptr, ptr %10, align 8, !tbaa !15
  %28 = getelementptr inbounds nuw %struct.ndef_aux_st, ptr %27, i32 0, i32 2
  %29 = load ptr, ptr %28, align 8, !tbaa !35
  %30 = getelementptr inbounds nuw %struct.ASN1_STREAM_ARG_st, ptr %14, i32 0, i32 1
  store ptr %29, ptr %30, align 8, !tbaa !30
  %31 = load ptr, ptr %10, align 8, !tbaa !15
  %32 = getelementptr inbounds nuw %struct.ndef_aux_st, ptr %31, i32 0, i32 3
  %33 = load ptr, ptr %32, align 8, !tbaa !37
  %34 = getelementptr inbounds nuw %struct.ASN1_STREAM_ARG_st, ptr %14, i32 0, i32 0
  store ptr %33, ptr %34, align 8, !tbaa !27
  %35 = load ptr, ptr %10, align 8, !tbaa !15
  %36 = getelementptr inbounds nuw %struct.ndef_aux_st, ptr %35, i32 0, i32 4
  %37 = load ptr, ptr %36, align 8, !tbaa !36
  %38 = getelementptr inbounds nuw %struct.ASN1_STREAM_ARG_st, ptr %14, i32 0, i32 2
  store ptr %37, ptr %38, align 8, !tbaa !31
  %39 = load ptr, ptr %13, align 8, !tbaa !22
  %40 = getelementptr inbounds nuw %struct.ASN1_AUX_st, ptr %39, i32 0, i32 3
  %41 = load ptr, ptr %40, align 8, !tbaa !24
  %42 = load ptr, ptr %10, align 8, !tbaa !15
  %43 = getelementptr inbounds nuw %struct.ndef_aux_st, ptr %42, i32 0, i32 0
  %44 = load ptr, ptr %10, align 8, !tbaa !15
  %45 = getelementptr inbounds nuw %struct.ndef_aux_st, ptr %44, i32 0, i32 1
  %46 = load ptr, ptr %45, align 8, !tbaa !34
  %47 = call i32 %41(i32 noundef 11, ptr noundef %43, ptr noundef %46, ptr noundef %14)
  %48 = icmp sle i32 %47, 0
  br i1 %48, label %49, label %50

49:                                               ; preds = %19
  store i32 0, ptr %5, align 4
  store i32 1, ptr %15, align 4
  br label %104

50:                                               ; preds = %19
  %51 = load ptr, ptr %10, align 8, !tbaa !15
  %52 = getelementptr inbounds nuw %struct.ndef_aux_st, ptr %51, i32 0, i32 0
  %53 = load ptr, ptr %52, align 8, !tbaa !32
  %54 = load ptr, ptr %10, align 8, !tbaa !15
  %55 = getelementptr inbounds nuw %struct.ndef_aux_st, ptr %54, i32 0, i32 1
  %56 = load ptr, ptr %55, align 8, !tbaa !34
  %57 = call i32 @ASN1_item_ndef_i2d(ptr noundef %53, ptr noundef null, ptr noundef %56)
  store i32 %57, ptr %12, align 4, !tbaa !42
  %58 = load i32, ptr %12, align 4, !tbaa !42
  %59 = sext i32 %58 to i64
  %60 = call noalias ptr @malloc(i64 noundef %59) #6
  store ptr %60, ptr %11, align 8, !tbaa !43
  %61 = load ptr, ptr %11, align 8, !tbaa !43
  %62 = icmp eq ptr %61, null
  br i1 %62, label %63, label %64

63:                                               ; preds = %50
  store i32 0, ptr %5, align 4
  store i32 1, ptr %15, align 4
  br label %104

64:                                               ; preds = %50
  %65 = load ptr, ptr %11, align 8, !tbaa !43
  %66 = load ptr, ptr %10, align 8, !tbaa !15
  %67 = getelementptr inbounds nuw %struct.ndef_aux_st, ptr %66, i32 0, i32 5
  store ptr %65, ptr %67, align 8, !tbaa !44
  %68 = load ptr, ptr %11, align 8, !tbaa !43
  %69 = load ptr, ptr %7, align 8, !tbaa !38
  store ptr %68, ptr %69, align 8, !tbaa !43
  %70 = load ptr, ptr %10, align 8, !tbaa !15
  %71 = getelementptr inbounds nuw %struct.ndef_aux_st, ptr %70, i32 0, i32 0
  %72 = load ptr, ptr %71, align 8, !tbaa !32
  %73 = load ptr, ptr %10, align 8, !tbaa !15
  %74 = getelementptr inbounds nuw %struct.ndef_aux_st, ptr %73, i32 0, i32 1
  %75 = load ptr, ptr %74, align 8, !tbaa !34
  %76 = call i32 @ASN1_item_ndef_i2d(ptr noundef %72, ptr noundef %11, ptr noundef %75)
  store i32 %76, ptr %12, align 4, !tbaa !42
  %77 = load ptr, ptr %10, align 8, !tbaa !15
  %78 = getelementptr inbounds nuw %struct.ndef_aux_st, ptr %77, i32 0, i32 4
  %79 = load ptr, ptr %78, align 8, !tbaa !36
  %80 = load ptr, ptr %79, align 8, !tbaa !43
  %81 = icmp ne ptr %80, null
  br i1 %81, label %83, label %82

82:                                               ; preds = %64
  store i32 0, ptr %5, align 4
  store i32 1, ptr %15, align 4
  br label %104

83:                                               ; preds = %64
  %84 = load ptr, ptr %10, align 8, !tbaa !15
  %85 = getelementptr inbounds nuw %struct.ndef_aux_st, ptr %84, i32 0, i32 4
  %86 = load ptr, ptr %85, align 8, !tbaa !36
  %87 = load ptr, ptr %86, align 8, !tbaa !43
  %88 = load ptr, ptr %7, align 8, !tbaa !38
  store ptr %87, ptr %88, align 8, !tbaa !43
  %89 = load i32, ptr %12, align 4, !tbaa !42
  %90 = sext i32 %89 to i64
  %91 = load ptr, ptr %10, align 8, !tbaa !15
  %92 = getelementptr inbounds nuw %struct.ndef_aux_st, ptr %91, i32 0, i32 4
  %93 = load ptr, ptr %92, align 8, !tbaa !36
  %94 = load ptr, ptr %93, align 8, !tbaa !43
  %95 = load ptr, ptr %10, align 8, !tbaa !15
  %96 = getelementptr inbounds nuw %struct.ndef_aux_st, ptr %95, i32 0, i32 5
  %97 = load ptr, ptr %96, align 8, !tbaa !44
  %98 = ptrtoint ptr %94 to i64
  %99 = ptrtoint ptr %97 to i64
  %100 = sub i64 %98, %99
  %101 = sub nsw i64 %90, %100
  %102 = trunc i64 %101 to i32
  %103 = load ptr, ptr %8, align 8, !tbaa !39
  store i32 %102, ptr %103, align 4, !tbaa !42
  store i32 1, ptr %5, align 4
  store i32 1, ptr %15, align 4
  br label %104

104:                                              ; preds = %83, %82, %63, %49, %18
  call void @llvm.lifetime.end.p0(i64 24, ptr %14) #5
  call void @llvm.lifetime.end.p0(i64 8, ptr %13) #5
  call void @llvm.lifetime.end.p0(i64 4, ptr %12) #5
  call void @llvm.lifetime.end.p0(i64 8, ptr %11) #5
  call void @llvm.lifetime.end.p0(i64 8, ptr %10) #5
  %105 = load i32, ptr %5, align 4
  ret i32 %105
}