; Function Attrs: nounwind uwtable
define internal range(i32 0, 2) i32 @ndef_suffix(ptr readnone captures(none) %0, ptr noundef writeonly captures(none) %1, ptr noundef writeonly captures(none) %2, ptr noundef readonly captures(address_is_null) %3) #0 {
  %5 = alloca ptr, align 8
  %6 = alloca %struct.ASN1_STREAM_ARG_st, align 8
  call void @llvm.lifetime.start.p0(i64 8, ptr nonnull %5) #7
  call void @llvm.lifetime.start.p0(i64 24, ptr nonnull %6) #7
  %.not = icmp eq ptr %3, null
  br i1 %.not, label %46, label %7

7:                                                ; preds = %4
  %8 = load ptr, ptr %3, align 8, !tbaa !32
  %9 = getelementptr inbounds nuw i8, ptr %8, i64 8
  %10 = load ptr, ptr %9, align 8, !tbaa !26
  %11 = getelementptr inbounds nuw i8, ptr %10, i64 32
  %12 = load ptr, ptr %11, align 8, !tbaa !11
  %13 = getelementptr inbounds nuw i8, ptr %8, i64 16
  %14 = load ptr, ptr %13, align 8, !tbaa !28
  %15 = getelementptr inbounds nuw i8, ptr %6, i64 8
  store ptr %14, ptr %15, align 8, !tbaa !27
  %16 = getelementptr inbounds nuw i8, ptr %8, i64 24
  %17 = load ptr, ptr %16, align 8, !tbaa !31
  store ptr %17, ptr %6, align 8, !tbaa !19
  %18 = getelementptr inbounds nuw i8, ptr %8, i64 32
  %19 = load ptr, ptr %18, align 8, !tbaa !30
  %20 = getelementptr inbounds nuw i8, ptr %6, i64 16
  store ptr %19, ptr %20, align 8, !tbaa !29
  %21 = getelementptr inbounds nuw i8, ptr %12, i64 16
  %22 = load ptr, ptr %21, align 8, !tbaa !16
  %23 = call i32 %22(i32 noundef 11, ptr noundef %8, ptr noundef %10, ptr noundef nonnull %6) #7
  %24 = icmp slt i32 %23, 1
  br i1 %24, label %46, label %25

25:                                               ; preds = %7
  %26 = load ptr, ptr %8, align 8, !tbaa !23
  %27 = load ptr, ptr %9, align 8, !tbaa !26
  %28 = call i32 @ASN1_item_ndef_i2d(ptr noundef %26, ptr noundef null, ptr noundef %27) #7
  %29 = sext i32 %28 to i64
  %30 = call noalias ptr @malloc(i64 noundef %29) #8
  store ptr %30, ptr %5, align 8, !tbaa !34
  %31 = icmp eq ptr %30, null
  br i1 %31, label %46, label %32

32:                                               ; preds = %25
  %33 = getelementptr inbounds nuw i8, ptr %8, i64 40
  store ptr %30, ptr %33, align 8, !tbaa !35
  store ptr %30, ptr %1, align 8, !tbaa !34
  %34 = load ptr, ptr %8, align 8, !tbaa !23
  %35 = load ptr, ptr %9, align 8, !tbaa !26
  %36 = call i32 @ASN1_item_ndef_i2d(ptr noundef %34, ptr noundef nonnull %5, ptr noundef %35) #7
  %37 = load ptr, ptr %18, align 8, !tbaa !30
  %38 = load ptr, ptr %37, align 8, !tbaa !34
  %.not26 = icmp eq ptr %38, null
  br i1 %.not26, label %46, label %39

39:                                               ; preds = %32
  store ptr %38, ptr %1, align 8, !tbaa !34
  %40 = load ptr, ptr %37, align 8, !tbaa !34
  %41 = load ptr, ptr %33, align 8, !tbaa !35
  %42 = ptrtoint ptr %40 to i64
  %43 = ptrtoint ptr %41 to i64
  %.neg = sub i64 %43, %42
  %44 = trunc i64 %.neg to i32
  %45 = add i32 %36, %44
  store i32 %45, ptr %2, align 4, !tbaa !36
  br label %46

46:                                               ; preds = %32, %25, %7, %4, %39
  %.0 = phi i32 [ 1, %39 ], [ 0, %4 ], [ 0, %7 ], [ 0, %25 ], [ 0, %32 ]
  call void @llvm.lifetime.end.p0(i64 24, ptr nonnull %6) #7
  call void @llvm.lifetime.end.p0(i64 8, ptr nonnull %5) #7
  ret i32 %.0
}